target datalayout = "e-m:e-p270:32:32-p271:32:32-p272:64:64-i64:64-i128:128-f80:128-n8:16:32:64-S128"
target triple = "x86_64-pc-linux-gnu"

%struct.SDL_BlitInfo = type { ptr, ptr, i32, i32, i32, i32, ptr, ptr, i32, i32, i32, i32, ptr, ptr, ptr, ptr, ptr, ptr, i32, i32, i8, i8, i8, i8 }

; Function Attrs: nounwind uwtable
define internal void @SDL_Blit_RGBA8888_XRGB8888_Modulate(ptr noundef %0) #0 {
  %2 = alloca ptr, align 8
  %3 = alloca i32, align 4
  %4 = alloca i32, align 4
  %5 = alloca i32, align 4
  %6 = alloca i32, align 4
  %7 = alloca i32, align 4
  %8 = alloca i32, align 4
  %9 = alloca i32, align 4
  %10 = alloca i32, align 4
  %11 = alloca ptr, align 8
  %12 = alloca ptr, align 8
  %13 = alloca i32, align 4
  %14 = alloca i16, align 2
  %15 = alloca i16, align 2
  %16 = alloca i16, align 2
  store ptr %0, ptr %2, align 8
  call void @llvm.lifetime.start.p0(i64 4, ptr %3) #2
  %17 = load ptr, ptr %2, align 8
  %18 = getelementptr inbounds nuw %struct.SDL_BlitInfo, ptr %17, i32 0, i32 18
  %19 = load i32, ptr %18, align 8
  store i32 %19, ptr %3, align 4
  call void @llvm.lifetime.start.p0(i64 4, ptr %4) #2
  %20 = load ptr, ptr %2, align 8
  %21 = getelementptr inbounds nuw %struct.SDL_BlitInfo, ptr %20, i32 0, i32 20
  %22 = load i8, ptr %21, align 8
  %23 = zext i8 %22 to i32
  store i32 %23, ptr %4, align 4
  call void @llvm.lifetime.start.p0(i64 4, ptr %5) #2
  %24 = load ptr, ptr %2, align 8
  %25 = getelementptr inbounds nuw %struct.SDL_BlitInfo, ptr %24, i32 0, i32 21
  %26 = load i8, ptr %25, align 1
  %27 = zext i8 %26 to i32
  store i32 %27, ptr %5, align 4
  call void @llvm.lifetime.start.p0(i64 4, ptr %6) #2
  %28 = load ptr, ptr %2, align 8
  %29 = getelementptr inbounds nuw %struct.SDL_BlitInfo, ptr %28, i32 0, i32 22
  %30 = load i8, ptr %29, align 2
  %31 = zext i8 %30 to i32
  store i32 %31, ptr %6, align 4
  call void @llvm.lifetime.start.p0(i64 4, ptr %7) #2
  call void @llvm.lifetime.start.p0(i64 4, ptr %8) #2
  call void @llvm.lifetime.start.p0(i64 4, ptr %9) #2
  call void @llvm.lifetime.start.p0(i64 4, ptr %10) #2
  br label %32

32:                                               ; preds = %148, %1
  %33 = load ptr, ptr %2, align 8
  %34 = getelementptr inbounds nuw %struct.SDL_BlitInfo, ptr %33, i32 0, i32 9
  %35 = load i32, ptr %34, align 4
  %36 = add nsw i32 %35, -1
  store i32 %36, ptr %34, align 4
  %37 = icmp ne i32 %35, 0
  br i1 %37, label %38, label %165

38:                                               ; preds = %32
  call void @llvm.lifetime.start.p0(i64 8, ptr %11) #2
  %39 = load ptr, ptr %2, align 8
  %40 = getelementptr inbounds nuw %struct.SDL_BlitInfo, ptr %39, i32 0, i32 1
  %41 = load ptr, ptr %40, align 8
  store ptr %41, ptr %11, align 8
  call void @llvm.lifetime.start.p0(i64 8, ptr %12) #2
  %42 = load ptr, ptr %2, align 8
  %43 = getelementptr inbounds nuw %struct.SDL_BlitInfo, ptr %42, i32 0, i32 7
  %44 = load ptr, ptr %43, align 8
  store ptr %44, ptr %12, align 8
  call void @llvm.lifetime.start.p0(i64 4, ptr %13) #2
  %45 = load ptr, ptr %2, align 8
  %46 = getelementptr inbounds nuw %struct.SDL_BlitInfo, ptr %45, i32 0, i32 8
  %47 = load i32, ptr %46, align 8
  store i32 %47, ptr %13, align 4
  br label %48

48:                                               ; preds = %134, %38
  %49 = load i32, ptr %13, align 4
  %50 = add nsw i32 %49, -1
  store i32 %50, ptr %13, align 4
  %51 = icmp ne i32 %49, 0
  br i1 %51, label %52, label %148

52:                                               ; preds = %48
  %53 = load ptr, ptr %11, align 8
  %54 = load i32, ptr %53, align 4
  store i32 %54, ptr %7, align 4
  %55 = load i32, ptr %7, align 4
  %56 = lshr i32 %55, 24
  %57 = trunc i32 %56 to i8
  %58 = zext i8 %57 to i32
  store i32 %58, ptr %8, align 4
  %59 = load i32, ptr %7, align 4
  %60 = lshr i32 %59, 16
  %61 = trunc i32 %60 to i8
  %62 = zext i8 %61 to i32
  store i32 %62, ptr %9, align 4
  %63 = load i32, ptr %7, align 4
  %64 = lshr i32 %63, 8
  %65 = trunc i32 %64 to i8
  %66 = zext i8 %65 to i32
  store i32 %66, ptr %10, align 4
  %67 = load i32, ptr %3, align 4
  %68 = and i32 %67, 1
  %69 = icmp ne i32 %68, 0
  br i1 %69, label %70, label %134

70:                                               ; preds = %52
  br label %71

71:                                               ; preds = %70
  call void @llvm.lifetime.start.p0(i64 2, ptr %14) #2
  %72 = load i32, ptr %8, align 4
  %73 = load i32, ptr %4, align 4
  %74 = mul i32 %72, %73
  %75 = trunc i32 %74 to i16
  store i16 %75, ptr %14, align 2
  %76 = load i16, ptr %14, align 2
  %77 = zext i16 %76 to i32
  %78 = add i32 %77, 1
  %79 = trunc i32 %78 to i16
  store i16 %79, ptr %14, align 2
  %80 = load i16, ptr %14, align 2
  %81 = zext i16 %80 to i32
  %82 = ashr i32 %81, 8
  %83 = load i16, ptr %14, align 2
  %84 = zext i16 %83 to i32
  %85 = add nsw i32 %84, %82
  %86 = trunc i32 %85 to i16
  store i16 %86, ptr %14, align 2
  %87 = load i16, ptr %14, align 2
  %88 = zext i16 %87 to i32
  %89 = ashr i32 %88, 8
  store i32 %89, ptr %8, align 4
  call void @llvm.lifetime.end.p0(i64 2, ptr %14) #2
  br label %90

90:                                               ; preds = %71
  br label %91

91:                                               ; preds = %90
  br label %92

92:                                               ; preds = %91
  call void @llvm.lifetime.start.p0(i64 2, ptr %15) #2
  %93 = load i32, ptr %9, align 4
  %94 = load i32, ptr %5, align 4
  %95 = mul i32 %93, %94
  %96 = trunc i32 %95 to i16
  store i16 %96, ptr %15, align 2
  %97 = load i16, ptr %15, align 2
  %98 = zext i16 %97 to i32
  %99 = add i32 %98, 1
  %100 = trunc i32 %99 to i16
  store i16 %100, ptr %15, align 2
  %101 = load i16, ptr %15, align 2
  %102 = zext i16 %101 to i32
  %103 = ashr i32 %102, 8
  %104 = load i16, ptr %15, align 2
  %105 = zext i16 %104 to i32
  %106 = add nsw i32 %105, %103
  %107 = trunc i32 %106 to i16
  store i16 %107, ptr %15, align 2
  %108 = load i16, ptr %15, align 2
  %109 = zext i16 %108 to i32
  %110 = ashr i32 %109, 8
  store i32 %110, ptr %9, align 4
  call void @llvm.lifetime.end.p0(i64 2, ptr %15) #2
  br label %111

111:                                              ; preds = %92
  br label %112

112:                                              ; preds = %111
  br label %113

113:                                              ; preds = %112
  call void @llvm.lifetime.start.p0(i64 2, ptr %16) #2
  %114 = load i32, ptr %10, align 4
  %115 = load i32, ptr %6, align 4
  %116 = mul i32 %114, %115
  %117 = trunc i32 %116 to i16
  store i16 %117, ptr %16, align 2
  %118 = load i16, ptr %16, align 2
  %119 = zext i16 %118 to i32
  %120 = add i32 %119, 1
  %121 = trunc i32 %120 to i16
  store i16 %121, ptr %16, align 2
  %122 = load i16, ptr %16, align 2
  %123 = zext i16 %122 to i32
  %124 = ashr i32 %123, 8
  %125 = load i16, ptr %16, align 2
  %126 = zext i16 %125 to i32
  %127 = add nsw i32 %126, %124
  %128 = trunc i32 %127 to i16
  store i16 %128, ptr %16, align 2
  %129 = load i16, ptr %16, align 2
  %130 = zext i16 %129 to i32
  %131 = ashr i32 %130, 8
  store i32 %131, ptr %10, align 4
  call void @llvm.lifetime.end.p0(i64 2, ptr %16) #2
  br label %132

132:                                              ; preds = %113
  br label %133

133:                                              ; preds = %132
  br label %134

134:                                              ; preds = %133, %52
  %135 = load i32, ptr %8, align 4
  %136 = shl i32 %135, 16
  %137 = load i32, ptr %9, align 4
  %138 = shl i32 %137, 8
  %139 = or i32 %136, %138
  %140 = load i32, ptr %10, align 4
  %141 = or i32 %139, %140
  store i32 %141, ptr %7, align 4
  %142 = load i32, ptr %7, align 4
  %143 = load ptr, ptr %12, align 8
  store i32 %142, ptr %143, align 4
  %144 = load ptr, ptr %11, align 8
  %145 = getelementptr inbounds nuw i32, ptr %144, i32 1
  store ptr %145, ptr %11, align 8
  %146 = load ptr, ptr %12, align 8
  %147 = getelementptr inbounds nuw i32, ptr %146, i32 1
  store ptr %147, ptr %12, align 8
  br label %48, !llvm.loop !178

148:                                              ; preds = %48
  %149 = load ptr, ptr %2, align 8
  %150 = getelementptr inbounds nuw %struct.SDL_BlitInfo, ptr %149, i32 0, i32 4
  %151 = load i32, ptr %150, align 8
  %152 = load ptr, ptr %2, align 8
  %153 = getelementptr inbounds nuw %struct.SDL_BlitInfo, ptr %152, i32 0, i32 1
  %154 = load ptr, ptr %153, align 8
  %155 = sext i32 %151 to i64
  %156 = getelementptr inbounds i8, ptr %154, i64 %155
  store ptr %156, ptr %153, align 8
  %157 = load ptr, ptr %2, align 8
  %158 = getelementptr inbounds nuw %struct.SDL_BlitInfo, ptr %157, i32 0, i32 10
  %159 = load i32, ptr %158, align 8
  %160 = load ptr, ptr %2, align 8
  %161 = getelementptr inbounds nuw %struct.SDL_BlitInfo, ptr %160, i32 0, i32 7
  %162 = load ptr, ptr %161, align 8
  %163 = sext i32 %159 to i64
  %164 = getelementptr inbounds i8, ptr %162, i64 %163
  store ptr %164, ptr %161, align 8
  call void @llvm.lifetime.end.p0(i64 4, ptr %13) #2
  call void @llvm.lifetime.end.p0(i64 8, ptr %12) #2
  call void @llvm.lifetime.end.p0(i64 8, ptr %11) #2
  br label %32, !llvm.loop !179

165:                                              ; preds = %32
  call void @llvm.lifetime.end.p0(i64 4, ptr %10) #2
  call void @llvm.lifetime.end.p0(i64 4, ptr %9) #2
  call void @llvm.lifetime.end.p0(i64 4, ptr %8) #2
  call void @llvm.lifetime.end.p0(i64 4, ptr %7) #2
  call void @llvm.lifetime.end.p0(i64 4, ptr %6) #2
  call void @llvm.lifetime.end.p0(i64 4, ptr %5) #2
  call void @llvm.lifetime.end.p0(i64 4, ptr %4) #2
  call void @llvm.lifetime.end.p0(i64 4, ptr %3) #2
  ret void
}